target datalayout = "e-m:e-p270:32:32-p271:32:32-p272:64:64-i64:64-i128:128-f80:128-n8:16:32:64-S128"
target triple = "x86_64-pc-linux-gnu"

%"class.llvm::StringRef" = type { ptr, i64 }
%"class.llvm::SectionKind" = type { i8, [3 x i8] }
%"class.llvm::MCSectionMachO" = type { %"class.llvm::MCSection.base", [16 x i8], i32, i32, i32, %"class.llvm::SmallVector.0" }
%"class.llvm::MCSection.base" = type <{ ptr, ptr, ptr, ptr, %"struct.llvm::Align", [3 x i8], i32, i32, i32, i8, [7 x i8], %"class.llvm::MCDummyFragment", %"class.llvm::SmallVector", %"class.llvm::StringRef", i32 }>
%"struct.llvm::Align" = type { i8 }
%"class.llvm::MCDummyFragment" = type { %"class.llvm::MCFragment.base", [2 x i8] }
%"class.llvm::MCFragment.base" = type <{ ptr, ptr, i64, i32, i8, i8 }>
%"class.llvm::SmallVector" = type { %"class.llvm::SmallVectorImpl", %"struct.llvm::SmallVectorStorage" }
%"class.llvm::SmallVectorImpl" = type { %"class.llvm::SmallVectorTemplateBase" }
%"class.llvm::SmallVectorTemplateBase" = type { %"class.llvm::SmallVectorTemplateCommon" }
%"class.llvm::SmallVectorTemplateCommon" = type { %"class.llvm::SmallVectorBase" }
%"class.llvm::SmallVectorBase" = type { ptr, i32, i32 }
%"struct.llvm::SmallVectorStorage" = type { [24 x i8] }
%"class.llvm::SmallVector.0" = type { %"class.llvm::SmallVectorImpl.1" }
%"class.llvm::SmallVectorImpl.1" = type { %"class.llvm::SmallVectorTemplateBase.2" }
%"class.llvm::SmallVectorTemplateBase.2" = type { %"class.llvm::SmallVectorTemplateCommon.3" }
%"class.llvm::SmallVectorTemplateCommon.3" = type { %"class.llvm::SmallVectorBase" }

; Function Attrs: mustprogress nounwind uwtable
define linkonce_odr hidden noundef ptr @_ZNK4llvm25SmallVectorTemplateCommonIPKNS_8MCSymbolEvE10getFirstElEv(ptr noundef nonnull align 8 dereferenceable(16) %0) #0 comdat align 2 {
  %2 = alloca ptr, align 8
  store ptr %0, ptr %2, align 8
  %3 = load ptr, ptr %2, align 8
  %4 = getelementptr inbounds i8, ptr %3, i64 16
  ret ptr %4
}

; Function Attrs: mustprogress nounwind uwtable
define linkonce_odr hidden void @_ZN4llvm25SmallVectorTemplateCommonIPKNS_8MCSymbolEvEC2Em(ptr noundef nonnull align 8 dereferenceable(16) %0, i64 noundef %1) unnamed_addr #0 comdat align 2 {
  %3 = alloca ptr, align 8
  %4 = alloca i64, align 8
  store ptr %0, ptr %3, align 8
  store i64 %1, ptr %4, align 8
  %5 = load ptr, ptr %3, align 8
  %6 = call noundef ptr @_ZNK4llvm25SmallVectorTemplateCommonIPKNS_8MCSymbolEvE10getFirstElEv(ptr noundef nonnull align 8 dereferenceable(16) %5)
  %7 = load i64, ptr %4, align 8
  call void @_ZN4llvm15SmallVectorBaseIjEC2EPvm(ptr noundef nonnull align 8 dereferenceable(16) %5, ptr noundef %6, i64 noundef %7)
  ret void
}

; Function Attrs: mustprogress nounwind uwtable
define linkonce_odr hidden void @_ZN4llvm23SmallVectorTemplateBaseIPKNS_8MCSymbolELb1EEC2Em(ptr noundef nonnull align 8 dereferenceable(16) %0, i64 noundef %1) unnamed_addr #0 comdat align 2 {
  %3 = alloca ptr, align 8
  %4 = alloca i64, align 8
  store ptr %0, ptr %3, align 8
  store i64 %1, ptr %4, align 8
  %5 = load ptr, ptr %3, align 8
  %6 = load i64, ptr %4, align 8
  call void @_ZN4llvm25SmallVectorTemplateCommonIPKNS_8MCSymbolEvEC2Em(ptr noundef nonnull align 8 dereferenceable(16) %5, i64 noundef %6)
  ret void
}

; Function Attrs: mustprogress nounwind uwtable
define linkonce_odr hidden void @_ZN4llvm15SmallVectorImplIPKNS_8MCSymbolEEC2Ej(ptr noundef nonnull align 8 dereferenceable(16) %0, i32 noundef %1) unnamed_addr #0 comdat align 2 {
  %3 = alloca ptr, align 8
  %4 = alloca i32, align 4
  store ptr %0, ptr %3, align 8
  store i32 %1, ptr %4, align 4
  %5 = load ptr, ptr %3, align 8
  %6 = load i32, ptr %4, align 4
  %7 = zext i32 %6 to i64
  call void @_ZN4llvm23SmallVectorTemplateBaseIPKNS_8MCSymbolELb1EEC2Em(ptr noundef nonnull align 8 dereferenceable(16) %5, i64 noundef %7)
  ret void
}

; Function Attrs: mustprogress nounwind uwtable
define linkonce_odr hidden noundef signext i8 @_ZNK4llvm9StringRefixEm(ptr noundef nonnull align 8 dereferenceable(16) %0, i64 noundef %1) #0 comdat align 2 {
  %3 = alloca ptr, align 8
  %4 = alloca i64, align 8
  store ptr %0, ptr %3, align 8
  store i64 %1, ptr %4, align 8
  %5 = load ptr, ptr %3, align 8
  %6 = getelementptr inbounds nuw %"class.llvm::StringRef", ptr %5, i32 0, i32 0
  %7 = load ptr, ptr %6, align 8
  %8 = load i64, ptr %4, align 8
  %9 = getelementptr inbounds i8, ptr %7, i64 %8
  %10 = load i8, ptr %9, align 1
  ret i8 %10
}

; Function Attrs: mustprogress nounwind uwtable
define linkonce_odr hidden noundef i64 @_ZNK4llvm9StringRef4sizeEv(ptr noundef nonnull align 8 dereferenceable(16) %0) #0 comdat align 2 {
  %2 = alloca ptr, align 8
  store ptr %0, ptr %2, align 8
  %3 = load ptr, ptr %2, align 8
  %4 = getelementptr inbounds nuw %"class.llvm::StringRef", ptr %3, i32 0, i32 1
  %5 = load i64, ptr %4, align 8
  ret i64 %5
}

; Function Attrs: mustprogress nounwind uwtable
define linkonce_odr hidden void @_ZN4llvm11SmallVectorIPKNS_8MCSymbolELj0EEC2Ev(ptr noundef nonnull align 8 dereferenceable(16) %0) unnamed_addr #0 comdat align 2 {
  %2 = alloca ptr, align 8
  store ptr %0, ptr %2, align 8
  %3 = load ptr, ptr %2, align 8
  call void @_ZN4llvm15SmallVectorImplIPKNS_8MCSymbolEEC2Ej(ptr noundef nonnull align 8 dereferenceable(16) %3, i32 noundef 0)
  ret void
}

; Function Attrs: mustprogress nounwind uwtable
define linkonce_odr hidden noundef zeroext i1 @_ZN4llvm5MachO16isVirtualSectionEh(i8 noundef zeroext %0) #0 comdat {
  %2 = alloca i8, align 1
  store i8 %0, ptr %2, align 1
  %3 = load i8, ptr %2, align 1
  %4 = zext i8 %3 to i32
  %5 = icmp eq i32 %4, 1
  br i1 %5, label %14, label %6

6:                                                ; preds = %1
  %7 = load i8, ptr %2, align 1
  %8 = zext i8 %7 to i32
  %9 = icmp eq i32 %8, 12
  br i1 %9, label %14, label %10

10:                                               ; preds = %6
  %11 = load i8, ptr %2, align 1
  %12 = zext i8 %11 to i32
  %13 = icmp eq i32 %12, 18
  br label %14

14:                                               ; preds = %10, %6, %1
  %15 = phi i1 [ true, %6 ], [ true, %1 ], [ %13, %10 ]
  ret i1 %15
}

; Function Attrs: mustprogress nounwind uwtable
define linkonce_odr hidden noundef zeroext i1 @_ZNK4llvm11SectionKind6isTextEv(ptr noundef nonnull align 4 dereferenceable(1) %0) #0 comdat align 2 {
  %2 = alloca ptr, align 8
  store ptr %0, ptr %2, align 8
  %3 = load ptr, ptr %2, align 8
  %4 = load i8, ptr %3, align 4
  %5 = zext i8 %4 to i32
  %6 = icmp eq i32 %5, 2
  br i1 %6, label %11, label %7

7:                                                ; preds = %1
  %8 = load i8, ptr %3, align 4
  %9 = zext i8 %8 to i32
  %10 = icmp eq i32 %9, 3
  br label %11

11:                                               ; preds = %7, %1
  %12 = phi i1 [ true, %1 ], [ %10, %7 ]
  ret i1 %12
}

; Function Attrs: mustprogress nounwind uwtable
define dso_local void @_ZN4llvm14MCSectionMachOC2ENS_9StringRefES1_jjNS_11SectionKindEPNS_8MCSymbolE(ptr noundef nonnull align 8 dereferenceable(192) %0, ptr %1, i64 %2, ptr %3, i64 %4, i32 noundef %5, i32 noundef %6, i32 %7, ptr noundef %8) unnamed_addr #0 align 2 {
  %10 = alloca %"class.llvm::StringRef", align 8
  %11 = alloca %"class.llvm::StringRef", align 8
  %12 = alloca %"class.llvm::SectionKind", align 4
  %13 = alloca ptr, align 8
  %14 = alloca i32, align 4
  %15 = alloca i32, align 4
  %16 = alloca ptr, align 8
  %17 = alloca %"class.llvm::StringRef", align 8
  %18 = alloca i32, align 4
  %19 = getelementptr inbounds nuw { ptr, i64 }, ptr %10, i32 0, i32 0
  store ptr %1, ptr %19, align 8
  %20 = getelementptr inbounds nuw { ptr, i64 }, ptr %10, i32 0, i32 1
  store i64 %2, ptr %20, align 8
  %21 = getelementptr inbounds nuw { ptr, i64 }, ptr %11, i32 0, i32 0
  store ptr %3, ptr %21, align 8
  %22 = getelementptr inbounds nuw { ptr, i64 }, ptr %11, i32 0, i32 1
  store i64 %4, ptr %22, align 8
  store i32 %7, ptr %12, align 4
  store ptr %0, ptr %13, align 8
  store i32 %5, ptr %14, align 4
  store i32 %6, ptr %15, align 4
  store ptr %8, ptr %16, align 8
  %23 = load ptr, ptr %13, align 8
  call void @llvm.memcpy.p0.p0.i64(ptr align 8 %17, ptr align 8 %11, i64 16, i1 false)
  %24 = call noundef zeroext i1 @_ZNK4llvm11SectionKind6isTextEv(ptr noundef nonnull align 4 dereferenceable(1) %12)
  %25 = load i32, ptr %14, align 4
  %26 = and i32 %25, 255
  %27 = trunc i32 %26 to i8
  %28 = call noundef zeroext i1 @_ZN4llvm5MachO16isVirtualSectionEh(i8 noundef zeroext %27)
  %29 = load ptr, ptr %16, align 8
  %30 = getelementptr inbounds nuw { ptr, i64 }, ptr %17, i32 0, i32 0
  %31 = load ptr, ptr %30, align 8
  %32 = getelementptr inbounds nuw { ptr, i64 }, ptr %17, i32 0, i32 1
  %33 = load i64, ptr %32, align 8
  call void @_ZN4llvm9MCSectionC2ENS0_14SectionVariantENS_9StringRefEbbPNS_8MCSymbolE(ptr noundef nonnull align 8 dereferenceable(148) %23, i32 noundef 3, ptr %31, i64 %33, i1 noundef zeroext %24, i1 noundef zeroext %28, ptr noundef %29)
  store ptr getelementptr inbounds inrange(-16, 24) ({ [5 x ptr] }, ptr @_ZTVN4llvm14MCSectionMachOE, i32 0, i32 0, i32 2), ptr %23, align 8
  %34 = getelementptr inbounds nuw %"class.llvm::MCSectionMachO", ptr %23, i32 0, i32 2
  %35 = load i32, ptr %14, align 4
  store i32 %35, ptr %34, align 4
  %36 = getelementptr inbounds nuw %"class.llvm::MCSectionMachO", ptr %23, i32 0, i32 3
  %37 = load i32, ptr %15, align 4
  store i32 %37, ptr %36, align 8
  %38 = getelementptr inbounds nuw %"class.llvm::MCSectionMachO", ptr %23, i32 0, i32 4
  store i32 0, ptr %38, align 4
  %39 = getelementptr inbounds nuw %"class.llvm::MCSectionMachO", ptr %23, i32 0, i32 5
  call void @_ZN4llvm11SmallVectorIPKNS_8MCSymbolELj0EEC2Ev(ptr noundef nonnull align 8 dereferenceable(16) %39)
  store i32 0, ptr %18, align 4
  br label %40

40:                                               ; preds = %62, %9
  %41 = load i32, ptr %18, align 4
  %42 = icmp ne i32 %41, 16
  br i1 %42, label %43, label %65

43:                                               ; preds = %40
  %44 = load i32, ptr %18, align 4
  %45 = zext i32 %44 to i64
  %46 = call noundef i64 @_ZNK4llvm9StringRef4sizeEv(ptr noundef nonnull align 8 dereferenceable(16) %10)
  %47 = icmp ult i64 %45, %46
  br i1 %47, label %48, label %56

48:                                               ; preds = %43
  %49 = load i32, ptr %18, align 4
  %50 = zext i32 %49 to i64
  %51 = call noundef signext i8 @_ZNK4llvm9StringRefixEm(ptr noundef nonnull align 8 dereferenceable(16) %10, i64 noundef %50)
  %52 = getelementptr inbounds nuw %"class.llvm::MCSectionMachO", ptr %23, i32 0, i32 1
  %53 = load i32, ptr %18, align 4
  %54 = zext i32 %53 to i64
  %55 = getelementptr inbounds [16 x i8], ptr %52, i64 0, i64 %54
  store i8 %51, ptr %55, align 1
  br label %61

56:                                               ; preds = %43
  %57 = getelementptr inbounds nuw %"class.llvm::MCSectionMachO", ptr %23, i32 0, i32 1
  %58 = load i32, ptr %18, align 4
  %59 = zext i32 %58 to i64
  %60 = getelementptr inbounds [16 x i8], ptr %57, i64 0, i64 %59
  store i8 0, ptr %60, align 1
  br label %61

61:                                               ; preds = %56, %48
  br label %62

62:                                               ; preds = %61
  %63 = load i32, ptr %18, align 4
  %64 = add i32 %63, 1
  store i32 %64, ptr %18, align 4
  br label %40, !llvm.loop !4

65:                                               ; preds = %40
  ret void
}