; Function Attrs: mustprogress nounwind uwtable
define dso_local void @_ZN4llvm14MCSectionMachOC2ENS_9StringRefES1_jjNS_11SectionKindEPNS_8MCSymbolE(ptr noundef nonnull align 8 dereferenceable(192) %0, ptr nocapture readonly %1, i64 %2, ptr %3, i64 %4, i32 noundef %5, i32 noundef %6, i32 %7, ptr noundef %8) unnamed_addr #0 align 2 {
_ZN4llvm5MachO16isVirtualSectionEh.exit:
  %9 = and i32 %7, 254
  %spec.select.i = icmp eq i32 %9, 2
  %10 = trunc i32 %5 to i8
  %11 = icmp ult i8 %10, 19
  %12 = trunc i32 %5 to i19
  %switch.cast = and i19 %12, 255
  %switch.downshift = lshr i19 -258046, %switch.cast
  %switch.masked = trunc i19 %switch.downshift to i1
  %13 = select i1 %11, i1 %switch.masked, i1 false
  tail call void @_ZN4llvm9MCSectionC2ENS0_14SectionVariantENS_9StringRefEbbPNS_8MCSymbolE(ptr noundef nonnull align 8 dereferenceable(148) %0, i32 noundef 3, ptr %3, i64 %4, i1 noundef zeroext %spec.select.i, i1 noundef zeroext %13, ptr noundef %8) #13
  store ptr getelementptr inbounds inrange(-16, 24) (i8, ptr @_ZTVN4llvm14MCSectionMachOE, i64 16), ptr %0, align 8
  %14 = getelementptr inbounds nuw i8, ptr %0, i64 164
  store i32 %5, ptr %14, align 4
  %15 = getelementptr inbounds nuw i8, ptr %0, i64 168
  store i32 %6, ptr %15, align 8
  %16 = getelementptr inbounds nuw i8, ptr %0, i64 172
  store i32 0, ptr %16, align 4
  %17 = getelementptr inbounds nuw i8, ptr %0, i64 176
  %18 = getelementptr inbounds i8, ptr %0, i64 192
  tail call void @_ZN4llvm15SmallVectorBaseIjEC2EPvm(ptr noundef nonnull align 8 dereferenceable(16) %17, ptr noundef nonnull %18, i64 noundef 0) #13
  %19 = getelementptr inbounds nuw i8, ptr %0, i64 148
  br label %20

20:                                               ; preds = %_ZN4llvm5MachO16isVirtualSectionEh.exit, %25
  %indvars.iv = phi i64 [ 0, %_ZN4llvm5MachO16isVirtualSectionEh.exit ], [ %indvars.iv.next, %25 ]
  %21 = icmp ugt i64 %2, %indvars.iv
  br i1 %21, label %22, label %25

22:                                               ; preds = %20
  %23 = getelementptr inbounds i8, ptr %1, i64 %indvars.iv
  %24 = load i8, ptr %23, align 1
  br label %25

25:                                               ; preds = %20, %22
  %.sink = phi i8 [ %24, %22 ], [ 0, %20 ]
  %26 = getelementptr inbounds [16 x i8], ptr %19, i64 0, i64 %indvars.iv
  store i8 %.sink, ptr %26, align 1
  %indvars.iv.next = add nuw nsw i64 %indvars.iv, 1
  %.not = icmp eq i64 %indvars.iv.next, 16
  br i1 %.not, label %27, label %20, !llvm.loop !4

27:                                               ; preds = %25
  ret void
}